target datalayout = "e-m:e-p270:32:32-p271:32:32-p272:64:64-i64:64-i128:128-f80:128-n8:16:32:64-S128"
target triple = "x86_64-pc-linux-gnu"

%struct.AVExpr = type { i32, double, i32, %union.anon, [3 x ptr], ptr, ptr }
%union.anon = type { ptr }

; Function Attrs: nounwind uwtable
define internal i32 @verify_expr(ptr noundef %0) #0 {
  %2 = alloca i32, align 4
  %3 = alloca ptr, align 8
  store ptr %0, ptr %3, align 8, !tbaa !21
  %4 = load ptr, ptr %3, align 8, !tbaa !21
  %5 = icmp ne ptr %4, null
  br i1 %5, label %7, label %6

6:                                                ; preds = %1
  store i32 0, ptr %2, align 4
  br label %134

7:                                                ; preds = %1
  %8 = load ptr, ptr %3, align 8, !tbaa !21
  %9 = getelementptr inbounds nuw %struct.AVExpr, ptr %8, i32 0, i32 0
  %10 = load i32, ptr %9, align 8, !tbaa !49
  switch i32 %10, label %110 [
    i32 0, label %11
    i32 1, label %11
    i32 2, label %12
    i32 3, label %12
    i32 5, label %12
    i32 7, label %12
    i32 6, label %12
    i32 8, label %12
    i32 9, label %12
    i32 27, label %12
    i32 28, label %12
    i32 29, label %12
    i32 30, label %12
    i32 31, label %12
    i32 32, label %12
    i32 33, label %12
    i32 45, label %12
    i32 38, label %29
    i32 36, label %54
    i32 37, label %54
    i32 25, label %54
    i32 41, label %86
    i32 42, label %86
    i32 44, label %86
    i32 46, label %86
  ]

11:                                               ; preds = %7, %7
  store i32 1, ptr %2, align 4
  br label %134

12:                                               ; preds = %7, %7, %7, %7, %7, %7, %7, %7, %7, %7, %7, %7, %7, %7, %7
  %13 = load ptr, ptr %3, align 8, !tbaa !21
  %14 = getelementptr inbounds nuw %struct.AVExpr, ptr %13, i32 0, i32 4
  %15 = getelementptr inbounds [3 x ptr], ptr %14, i64 0, i64 0
  %16 = load ptr, ptr %15, align 8, !tbaa !21
  %17 = call i32 @verify_expr(ptr noundef %16)
  %18 = icmp ne i32 %17, 0
  br i1 %18, label %19, label %26

19:                                               ; preds = %12
  %20 = load ptr, ptr %3, align 8, !tbaa !21
  %21 = getelementptr inbounds nuw %struct.AVExpr, ptr %20, i32 0, i32 4
  %22 = getelementptr inbounds [3 x ptr], ptr %21, i64 0, i64 1
  %23 = load ptr, ptr %22, align 8, !tbaa !21
  %24 = icmp ne ptr %23, null
  %25 = xor i1 %24, true
  br label %26

26:                                               ; preds = %19, %12
  %27 = phi i1 [ false, %12 ], [ %25, %19 ]
  %28 = zext i1 %27 to i32
  store i32 %28, ptr %2, align 4
  br label %134

29:                                               ; preds = %7
  %30 = load ptr, ptr %3, align 8, !tbaa !21
  %31 = getelementptr inbounds nuw %struct.AVExpr, ptr %30, i32 0, i32 4
  %32 = getelementptr inbounds [3 x ptr], ptr %31, i64 0, i64 0
  %33 = load ptr, ptr %32, align 8, !tbaa !21
  %34 = call i32 @verify_expr(ptr noundef %33)
  %35 = icmp ne i32 %34, 0
  br i1 %35, label %36, label %51

36:                                               ; preds = %29
  %37 = load ptr, ptr %3, align 8, !tbaa !21
  %38 = getelementptr inbounds nuw %struct.AVExpr, ptr %37, i32 0, i32 4
  %39 = getelementptr inbounds [3 x ptr], ptr %38, i64 0, i64 1
  %40 = load ptr, ptr %39, align 8, !tbaa !21
  %41 = icmp ne ptr %40, null
  br i1 %41, label %42, label %49

42:                                               ; preds = %36
  %43 = load ptr, ptr %3, align 8, !tbaa !21
  %44 = getelementptr inbounds nuw %struct.AVExpr, ptr %43, i32 0, i32 4
  %45 = getelementptr inbounds [3 x ptr], ptr %44, i64 0, i64 1
  %46 = load ptr, ptr %45, align 8, !tbaa !21
  %47 = call i32 @verify_expr(ptr noundef %46)
  %48 = icmp ne i32 %47, 0
  br label %49

49:                                               ; preds = %42, %36
  %50 = phi i1 [ true, %36 ], [ %48, %42 ]
  br label %51

51:                                               ; preds = %49, %29
  %52 = phi i1 [ false, %29 ], [ %50, %49 ]
  %53 = zext i1 %52 to i32
  store i32 %53, ptr %2, align 4
  br label %134

54:                                               ; preds = %7, %7, %7
  %55 = load ptr, ptr %3, align 8, !tbaa !21
  %56 = getelementptr inbounds nuw %struct.AVExpr, ptr %55, i32 0, i32 4
  %57 = getelementptr inbounds [3 x ptr], ptr %56, i64 0, i64 0
  %58 = load ptr, ptr %57, align 8, !tbaa !21
  %59 = call i32 @verify_expr(ptr noundef %58)
  %60 = icmp ne i32 %59, 0
  br i1 %60, label %61, label %83

61:                                               ; preds = %54
  %62 = load ptr, ptr %3, align 8, !tbaa !21
  %63 = getelementptr inbounds nuw %struct.AVExpr, ptr %62, i32 0, i32 4
  %64 = getelementptr inbounds [3 x ptr], ptr %63, i64 0, i64 1
  %65 = load ptr, ptr %64, align 8, !tbaa !21
  %66 = call i32 @verify_expr(ptr noundef %65)
  %67 = icmp ne i32 %66, 0
  br i1 %67, label %68, label %83

68:                                               ; preds = %61
  %69 = load ptr, ptr %3, align 8, !tbaa !21
  %70 = getelementptr inbounds nuw %struct.AVExpr, ptr %69, i32 0, i32 4
  %71 = getelementptr inbounds [3 x ptr], ptr %70, i64 0, i64 2
  %72 = load ptr, ptr %71, align 8, !tbaa !21
  %73 = icmp ne ptr %72, null
  br i1 %73, label %74, label %81

74:                                               ; preds = %68
  %75 = load ptr, ptr %3, align 8, !tbaa !21
  %76 = getelementptr inbounds nuw %struct.AVExpr, ptr %75, i32 0, i32 4
  %77 = getelementptr inbounds [3 x ptr], ptr %76, i64 0, i64 2
  %78 = load ptr, ptr %77, align 8, !tbaa !21
  %79 = call i32 @verify_expr(ptr noundef %78)
  %80 = icmp ne i32 %79, 0
  br label %81

81:                                               ; preds = %74, %68
  %82 = phi i1 [ true, %68 ], [ %80, %74 ]
  br label %83

83:                                               ; preds = %81, %61, %54
  %84 = phi i1 [ false, %61 ], [ false, %54 ], [ %82, %81 ]
  %85 = zext i1 %84 to i32
  store i32 %85, ptr %2, align 4
  br label %134

86:                                               ; preds = %7, %7, %7, %7
  %87 = load ptr, ptr %3, align 8, !tbaa !21
  %88 = getelementptr inbounds nuw %struct.AVExpr, ptr %87, i32 0, i32 4
  %89 = getelementptr inbounds [3 x ptr], ptr %88, i64 0, i64 0
  %90 = load ptr, ptr %89, align 8, !tbaa !21
  %91 = call i32 @verify_expr(ptr noundef %90)
  %92 = icmp ne i32 %91, 0
  br i1 %92, label %93, label %107

93:                                               ; preds = %86
  %94 = load ptr, ptr %3, align 8, !tbaa !21
  %95 = getelementptr inbounds nuw %struct.AVExpr, ptr %94, i32 0, i32 4
  %96 = getelementptr inbounds [3 x ptr], ptr %95, i64 0, i64 1
  %97 = load ptr, ptr %96, align 8, !tbaa !21
  %98 = call i32 @verify_expr(ptr noundef %97)
  %99 = icmp ne i32 %98, 0
  br i1 %99, label %100, label %107

100:                                              ; preds = %93
  %101 = load ptr, ptr %3, align 8, !tbaa !21
  %102 = getelementptr inbounds nuw %struct.AVExpr, ptr %101, i32 0, i32 4
  %103 = getelementptr inbounds [3 x ptr], ptr %102, i64 0, i64 2
  %104 = load ptr, ptr %103, align 8, !tbaa !21
  %105 = call i32 @verify_expr(ptr noundef %104)
  %106 = icmp ne i32 %105, 0
  br label %107

107:                                              ; preds = %100, %93, %86
  %108 = phi i1 [ false, %93 ], [ false, %86 ], [ %106, %100 ]
  %109 = zext i1 %108 to i32
  store i32 %109, ptr %2, align 4
  br label %134

110:                                              ; preds = %7
  %111 = load ptr, ptr %3, align 8, !tbaa !21
  %112 = getelementptr inbounds nuw %struct.AVExpr, ptr %111, i32 0, i32 4
  %113 = getelementptr inbounds [3 x ptr], ptr %112, i64 0, i64 0
  %114 = load ptr, ptr %113, align 8, !tbaa !21
  %115 = call i32 @verify_expr(ptr noundef %114)
  %116 = icmp ne i32 %115, 0
  br i1 %116, label %117, label %131

117:                                              ; preds = %110
  %118 = load ptr, ptr %3, align 8, !tbaa !21
  %119 = getelementptr inbounds nuw %struct.AVExpr, ptr %118, i32 0, i32 4
  %120 = getelementptr inbounds [3 x ptr], ptr %119, i64 0, i64 1
  %121 = load ptr, ptr %120, align 8, !tbaa !21
  %122 = call i32 @verify_expr(ptr noundef %121)
  %123 = icmp ne i32 %122, 0
  br i1 %123, label %124, label %131

124:                                              ; preds = %117
  %125 = load ptr, ptr %3, align 8, !tbaa !21
  %126 = getelementptr inbounds nuw %struct.AVExpr, ptr %125, i32 0, i32 4
  %127 = getelementptr inbounds [3 x ptr], ptr %126, i64 0, i64 2
  %128 = load ptr, ptr %127, align 8, !tbaa !21
  %129 = icmp ne ptr %128, null
  %130 = xor i1 %129, true
  br label %131

131:                                              ; preds = %124, %117, %110
  %132 = phi i1 [ false, %117 ], [ false, %110 ], [ %130, %124 ]
  %133 = zext i1 %132 to i32
  store i32 %133, ptr %2, align 4
  br label %134

134:                                              ; preds = %131, %107, %83, %51, %26, %11, %6
  %135 = load i32, ptr %2, align 4
  ret i32 %135
}