; Function Attrs: nofree nosync nounwind memory(read, inaccessiblemem: none) uwtable
define internal fastcc range(i32 0, 2) i32 @verify_expr(ptr noundef readonly captures(address_is_null) %0) unnamed_addr #7 {
  %.not34 = icmp eq ptr %0, null
  br i1 %.not34, label %.loopexit, label %.lr.ph

.lr.ph:                                           ; preds = %1, %tailrecurse.backedge
  %.tr35 = phi ptr [ %.tr.be, %tailrecurse.backedge ], [ %0, %1 ]
  %2 = load i32, ptr %.tr35, align 8, !tbaa !39
  switch i32 %2, label %36 [
    i32 0, label %.loopexit
    i32 1, label %.loopexit
    i32 2, label %3
    i32 3, label %3
    i32 5, label %3
    i32 7, label %3
    i32 6, label %3
    i32 8, label %3
    i32 9, label %3
    i32 27, label %3
    i32 28, label %3
    i32 29, label %3
    i32 30, label %3
    i32 31, label %3
    i32 32, label %3
    i32 33, label %3
    i32 45, label %3
    i32 38, label %7
    i32 36, label %14
    i32 37, label %14
    i32 25, label %14
    i32 41, label %25
    i32 42, label %25
    i32 44, label %25
    i32 46, label %25
  ]

3:                                                ; preds = %.lr.ph, %.lr.ph, %.lr.ph, %.lr.ph, %.lr.ph, %.lr.ph, %.lr.ph, %.lr.ph, %.lr.ph, %.lr.ph, %.lr.ph, %.lr.ph, %.lr.ph, %.lr.ph, %.lr.ph
  %4 = getelementptr inbounds nuw i8, ptr %.tr35, i64 32
  %5 = load ptr, ptr %4, align 8, !tbaa !15
  %6 = tail call fastcc i32 @verify_expr(ptr noundef %5)
  %.not27 = icmp eq i32 %6, 0
  br i1 %.not27, label %.loopexit, label %.loopexit.sink.split

7:                                                ; preds = %.lr.ph
  %8 = getelementptr inbounds nuw i8, ptr %.tr35, i64 32
  %9 = load ptr, ptr %8, align 8, !tbaa !15
  %10 = tail call fastcc i32 @verify_expr(ptr noundef %9)
  %.not25 = icmp eq i32 %10, 0
  br i1 %.not25, label %.loopexit, label %11

11:                                               ; preds = %7
  %12 = getelementptr inbounds nuw i8, ptr %.tr35, i64 40
  %13 = load ptr, ptr %12, align 8, !tbaa !15
  %.not26 = icmp eq ptr %13, null
  br i1 %.not26, label %.loopexit, label %tailrecurse.backedge

14:                                               ; preds = %.lr.ph, %.lr.ph, %.lr.ph
  %15 = getelementptr inbounds nuw i8, ptr %.tr35, i64 32
  %16 = load ptr, ptr %15, align 8, !tbaa !15
  %17 = tail call fastcc i32 @verify_expr(ptr noundef %16)
  %.not22 = icmp eq i32 %17, 0
  br i1 %.not22, label %.loopexit, label %18

18:                                               ; preds = %14
  %19 = getelementptr inbounds nuw i8, ptr %.tr35, i64 40
  %20 = load ptr, ptr %19, align 8, !tbaa !15
  %21 = tail call fastcc i32 @verify_expr(ptr noundef %20)
  %.not23 = icmp eq i32 %21, 0
  br i1 %.not23, label %.loopexit, label %22

22:                                               ; preds = %18
  %23 = getelementptr inbounds nuw i8, ptr %.tr35, i64 48
  %24 = load ptr, ptr %23, align 8, !tbaa !15
  %.not24 = icmp eq ptr %24, null
  br i1 %.not24, label %.loopexit, label %tailrecurse.backedge

25:                                               ; preds = %.lr.ph, %.lr.ph, %.lr.ph, %.lr.ph
  %26 = getelementptr inbounds nuw i8, ptr %.tr35, i64 32
  %27 = load ptr, ptr %26, align 8, !tbaa !15
  %28 = tail call fastcc i32 @verify_expr(ptr noundef %27)
  %.not20 = icmp eq i32 %28, 0
  br i1 %.not20, label %.loopexit, label %29

29:                                               ; preds = %25
  %30 = getelementptr inbounds nuw i8, ptr %.tr35, i64 40
  %31 = load ptr, ptr %30, align 8, !tbaa !15
  %32 = tail call fastcc i32 @verify_expr(ptr noundef %31)
  %.not21 = icmp eq i32 %32, 0
  br i1 %.not21, label %.loopexit, label %33

33:                                               ; preds = %29
  %34 = getelementptr inbounds nuw i8, ptr %.tr35, i64 48
  %35 = load ptr, ptr %34, align 8, !tbaa !15
  br label %tailrecurse.backedge

tailrecurse.backedge:                             ; preds = %33, %11, %22
  %.tr.be = phi ptr [ %35, %33 ], [ %13, %11 ], [ %24, %22 ]
  %.not = icmp eq ptr %.tr.be, null
  br i1 %.not, label %.loopexit, label %.lr.ph

36:                                               ; preds = %.lr.ph
  %37 = getelementptr inbounds nuw i8, ptr %.tr35, i64 32
  %38 = load ptr, ptr %37, align 8, !tbaa !15
  %39 = tail call fastcc i32 @verify_expr(ptr noundef %38)
  %.not29 = icmp eq i32 %39, 0
  br i1 %.not29, label %.loopexit, label %40

40:                                               ; preds = %36
  %41 = getelementptr inbounds nuw i8, ptr %.tr35, i64 40
  %42 = load ptr, ptr %41, align 8, !tbaa !15
  %43 = tail call fastcc i32 @verify_expr(ptr noundef %42)
  %.not30 = icmp eq i32 %43, 0
  br i1 %.not30, label %.loopexit, label %.loopexit.sink.split

.loopexit.sink.split:                             ; preds = %40, %3
  %.sink = phi i64 [ 40, %3 ], [ 48, %40 ]
  %44 = getelementptr inbounds nuw i8, ptr %.tr35, i64 %.sink
  %45 = load ptr, ptr %44, align 8, !tbaa !15
  %.not31 = icmp eq ptr %45, null
  %46 = zext i1 %.not31 to i32
  br label %.loopexit

.loopexit:                                        ; preds = %tailrecurse.backedge, %.lr.ph, %.lr.ph, %11, %7, %22, %18, %14, %29, %25, %.loopexit.sink.split, %1, %36, %40, %3
  %.0.shrunk = phi i32 [ 0, %3 ], [ 0, %40 ], [ 0, %36 ], [ 0, %1 ], [ %46, %.loopexit.sink.split ], [ 0, %tailrecurse.backedge ], [ 1, %.lr.ph ], [ 1, %.lr.ph ], [ 1, %11 ], [ 0, %7 ], [ 1, %22 ], [ 0, %18 ], [ 0, %14 ], [ 0, %29 ], [ 0, %25 ]
  ret i32 %.0.shrunk
}